target datalayout = "e-m:e-p270:32:32-p271:32:32-p272:64:64-i64:64-i128:128-f80:128-n8:16:32:64-S128"
target triple = "x86_64-pc-linux-gnu"

@.str.49 = private unnamed_addr constant [4 x i8] c"%lf\00", align 1
@.str.50 = private unnamed_addr constant [7 x i8] c" - %lf\00", align 1

; Function Attrs: mustprogress nounwind uwtable
define void @_ZN11PDBIOPlugin8mysscanfEPKcPd(ptr noundef nonnull align 8 dereferenceable(128) %0, ptr noundef %1, ptr noundef %2) #4 align 2 {
  %4 = alloca ptr, align 8
  %5 = alloca ptr, align 8
  %6 = alloca ptr, align 8
  store ptr %0, ptr %4, align 8
  store ptr %1, ptr %5, align 8
  store ptr %2, ptr %6, align 8
  %7 = load ptr, ptr %5, align 8
  %8 = load ptr, ptr %6, align 8
  %9 = call i32 (ptr, ptr, ...) @__isoc99_sscanf(ptr noundef %7, ptr noundef @.str.49, ptr noundef %8) #3
  %10 = icmp ne i32 %9, 0
  br i1 %10, label %24, label %11

11:                                               ; preds = %3
  %12 = load ptr, ptr %5, align 8
  %13 = load ptr, ptr %6, align 8
  %14 = call i32 (ptr, ptr, ...) @__isoc99_sscanf(ptr noundef %12, ptr noundef @.str.50, ptr noundef %13) #3
  %15 = icmp ne i32 %14, 0
  br i1 %15, label %16, label %21

16:                                               ; preds = %11
  %17 = load ptr, ptr %6, align 8
  %18 = load double, ptr %17, align 8
  %19 = fneg double %18
  %20 = load ptr, ptr %6, align 8
  store double %19, ptr %20, align 8
  br label %23

21:                                               ; preds = %11
  %22 = load ptr, ptr %6, align 8
  store double 0.000000e+00, ptr %22, align 8
  br label %23

23:                                               ; preds = %21, %16
  br label %24

24:                                               ; preds = %23, %3
  ret void
}