; Function Attrs: mustprogress nofree nounwind uwtable
define void @_ZN11PDBIOPlugin8mysscanfEPKcPd(ptr nocapture noundef nonnull readnone align 8 dereferenceable(128) %0, ptr nocapture noundef readonly %1, ptr noundef %2) local_unnamed_addr #18 align 2 {
  %4 = tail call i32 (ptr, ptr, ...) @__isoc99_sscanf(ptr noundef %1, ptr noundef nonnull @.str.49, ptr noundef %2) #27
  %.not = icmp eq i32 %4, 0
  br i1 %.not, label %5, label %10

5:                                                ; preds = %3
  %6 = tail call i32 (ptr, ptr, ...) @__isoc99_sscanf(ptr noundef %1, ptr noundef nonnull @.str.50, ptr noundef %2) #27
  %.not7 = icmp eq i32 %6, 0
  br i1 %.not7, label %.sink.split, label %7

7:                                                ; preds = %5
  %8 = load double, ptr %2, align 8
  %9 = fneg double %8
  br label %.sink.split

.sink.split:                                      ; preds = %5, %7
  %.sink = phi double [ %9, %7 ], [ 0.000000e+00, %5 ]
  store double %.sink, ptr %2, align 8
  br label %10

10:                                               ; preds = %.sink.split, %3
  ret void
}